target datalayout = "e-m:e-p270:32:32-p271:32:32-p272:64:64-i64:64-i128:128-f80:128-n8:16:32:64-S128"
target triple = "x86_64-pc-linux-gnu"

%struct.Node = type { i32 }
%struct.TypeCast = type { i32, ptr, ptr, i32 }
%struct.TypeName = type { i32, ptr, i32, i8, i8, ptr, i32, ptr, i32 }

@.str.41 = private unnamed_addr constant [13 x i8] c"parse_expr.c\00", align 1
@.str.61 = private unnamed_addr constant [26 x i8] c"cannot cast type %s to %s\00", align 1
@__func__.transformTypeCast = private unnamed_addr constant [18 x i8] c"transformTypeCast\00", align 1

; Function Attrs: nounwind uwtable
define internal ptr @transformTypeCast(ptr noundef %0, ptr noundef %1) #0 {
  %3 = alloca ptr, align 8
  %4 = alloca ptr, align 8
  %5 = alloca ptr, align 8
  %6 = alloca ptr, align 8
  %7 = alloca ptr, align 8
  %8 = alloca ptr, align 8
  %9 = alloca i32, align 4
  %10 = alloca i32, align 4
  %11 = alloca i32, align 4
  %12 = alloca i32, align 4
  %13 = alloca i32, align 4
  %14 = alloca i32, align 4
  %15 = alloca i32, align 4
  %16 = alloca i32, align 4
  store ptr %0, ptr %4, align 8
  store ptr %1, ptr %5, align 8
  call void @llvm.lifetime.start.p0(i64 8, ptr %6) #8
  call void @llvm.lifetime.start.p0(i64 8, ptr %7) #8
  %17 = load ptr, ptr %5, align 8
  %18 = getelementptr inbounds nuw %struct.TypeCast, ptr %17, i32 0, i32 1
  %19 = load ptr, ptr %18, align 8
  store ptr %19, ptr %7, align 8
  call void @llvm.lifetime.start.p0(i64 8, ptr %8) #8
  call void @llvm.lifetime.start.p0(i64 4, ptr %9) #8
  call void @llvm.lifetime.start.p0(i64 4, ptr %10) #8
  call void @llvm.lifetime.start.p0(i64 4, ptr %11) #8
  call void @llvm.lifetime.start.p0(i64 4, ptr %12) #8
  %20 = load ptr, ptr %4, align 8
  %21 = load ptr, ptr %5, align 8
  %22 = getelementptr inbounds nuw %struct.TypeCast, ptr %21, i32 0, i32 2
  %23 = load ptr, ptr %22, align 8
  call void @typenameTypeIdAndMod(ptr noundef %20, ptr noundef %23, ptr noundef %10, ptr noundef %11)
  %24 = load ptr, ptr %7, align 8
  %25 = getelementptr inbounds nuw %struct.Node, ptr %24, i32 0, i32 0
  %26 = load i32, ptr %25, align 4
  %27 = icmp eq i32 %26, 80
  br i1 %27, label %28, label %48

28:                                               ; preds = %2
  call void @llvm.lifetime.start.p0(i64 4, ptr %13) #8
  call void @llvm.lifetime.start.p0(i64 4, ptr %14) #8
  call void @llvm.lifetime.start.p0(i64 4, ptr %15) #8
  %29 = load i32, ptr %11, align 4
  store i32 %29, ptr %14, align 4
  %30 = load i32, ptr %10, align 4
  %31 = call i32 @getBaseTypeAndTypmod(i32 noundef %30, ptr noundef %14)
  store i32 %31, ptr %13, align 4
  %32 = load i32, ptr %13, align 4
  %33 = call i32 @get_element_type(i32 noundef %32)
  store i32 %33, ptr %15, align 4
  %34 = load i32, ptr %15, align 4
  %35 = icmp ne i32 %34, 0
  br i1 %35, label %36, label %43

36:                                               ; preds = %28
  %37 = load ptr, ptr %4, align 8
  %38 = load ptr, ptr %7, align 8
  %39 = load i32, ptr %13, align 4
  %40 = load i32, ptr %15, align 4
  %41 = load i32, ptr %14, align 4
  %42 = call ptr @transformArrayExpr(ptr noundef %37, ptr noundef %38, i32 noundef %39, i32 noundef %40, i32 noundef %41)
  store ptr %42, ptr %8, align 8
  br label %47

43:                                               ; preds = %28
  %44 = load ptr, ptr %4, align 8
  %45 = load ptr, ptr %7, align 8
  %46 = call ptr @transformExprRecurse(ptr noundef %44, ptr noundef %45)
  store ptr %46, ptr %8, align 8
  br label %47

47:                                               ; preds = %43, %36
  call void @llvm.lifetime.end.p0(i64 4, ptr %15) #8
  call void @llvm.lifetime.end.p0(i64 4, ptr %14) #8
  call void @llvm.lifetime.end.p0(i64 4, ptr %13) #8
  br label %52

48:                                               ; preds = %2
  %49 = load ptr, ptr %4, align 8
  %50 = load ptr, ptr %7, align 8
  %51 = call ptr @transformExprRecurse(ptr noundef %49, ptr noundef %50)
  store ptr %51, ptr %8, align 8
  br label %52

52:                                               ; preds = %48, %47
  %53 = load ptr, ptr %8, align 8
  %54 = call i32 @exprType(ptr noundef %53)
  store i32 %54, ptr %9, align 4
  %55 = load i32, ptr %9, align 4
  %56 = icmp eq i32 %55, 0
  br i1 %56, label %57, label %59

57:                                               ; preds = %52
  %58 = load ptr, ptr %8, align 8
  store ptr %58, ptr %3, align 8
  store i32 1, ptr %16, align 4
  br label %103

59:                                               ; preds = %52
  %60 = load ptr, ptr %5, align 8
  %61 = getelementptr inbounds nuw %struct.TypeCast, ptr %60, i32 0, i32 3
  %62 = load i32, ptr %61, align 8
  store i32 %62, ptr %12, align 4
  %63 = load i32, ptr %12, align 4
  %64 = icmp slt i32 %63, 0
  br i1 %64, label %65, label %71

65:                                               ; preds = %59
  %66 = load ptr, ptr %5, align 8
  %67 = getelementptr inbounds nuw %struct.TypeCast, ptr %66, i32 0, i32 2
  %68 = load ptr, ptr %67, align 8
  %69 = getelementptr inbounds nuw %struct.TypeName, ptr %68, i32 0, i32 8
  %70 = load i32, ptr %69, align 8
  store i32 %70, ptr %12, align 4
  br label %71

71:                                               ; preds = %65, %59
  %72 = load ptr, ptr %4, align 8
  %73 = load ptr, ptr %8, align 8
  %74 = load i32, ptr %9, align 4
  %75 = load i32, ptr %10, align 4
  %76 = load i32, ptr %11, align 4
  %77 = load i32, ptr %12, align 4
  %78 = call ptr @coerce_to_target_type(ptr noundef %72, ptr noundef %73, i32 noundef %74, i32 noundef %75, i32 noundef %76, i32 noundef 3, i32 noundef 1, i32 noundef %77)
  store ptr %78, ptr %6, align 8
  %79 = load ptr, ptr %6, align 8
  %80 = icmp eq ptr %79, null
  br i1 %80, label %81, label %101

81:                                               ; preds = %71
  br label %82

82:                                               ; preds = %81
  br i1 true, label %83, label %85

83:                                               ; preds = %82
  %84 = call zeroext i1 @errstart_cold(i32 noundef 21, ptr noundef null) #9
  br i1 %84, label %87, label %98

85:                                               ; preds = %82
  %86 = call zeroext i1 @errstart(i32 noundef 21, ptr noundef null)
  br i1 %86, label %87, label %98

87:                                               ; preds = %85, %83
  %88 = call i32 @errcode(i32 noundef 101744772)
  %89 = load i32, ptr %9, align 4
  %90 = call ptr @format_type_be(i32 noundef %89)
  %91 = load i32, ptr %10, align 4
  %92 = call ptr @format_type_be(i32 noundef %91)
  %93 = call i32 (ptr, ...) @errmsg(ptr noundef @.str.61, ptr noundef %90, ptr noundef %92)
  %94 = load ptr, ptr %4, align 8
  %95 = load i32, ptr %12, align 4
  %96 = load ptr, ptr %8, align 8
  %97 = call i32 @parser_coercion_errposition(ptr noundef %94, i32 noundef %95, ptr noundef %96)
  call void @errfinish(ptr noundef @.str.41, i32 noundef 2765, ptr noundef @__func__.transformTypeCast)
  br label %98

98:                                               ; preds = %87, %85, %83
  unreachable

99:                                               ; No predecessors!
  br label %100

100:                                              ; preds = %99
  br label %101

101:                                              ; preds = %100, %71
  %102 = load ptr, ptr %6, align 8
  store ptr %102, ptr %3, align 8
  store i32 1, ptr %16, align 4
  br label %103

103:                                              ; preds = %101, %57
  call void @llvm.lifetime.end.p0(i64 4, ptr %12) #8
  call void @llvm.lifetime.end.p0(i64 4, ptr %11) #8
  call void @llvm.lifetime.end.p0(i64 4, ptr %10) #8
  call void @llvm.lifetime.end.p0(i64 4, ptr %9) #8
  call void @llvm.lifetime.end.p0(i64 8, ptr %8) #8
  call void @llvm.lifetime.end.p0(i64 8, ptr %7) #8
  call void @llvm.lifetime.end.p0(i64 8, ptr %6) #8
  %104 = load ptr, ptr %3, align 8
  ret ptr %104
}