; Function Attrs: nounwind uwtable
define internal fastcc ptr @transformTypeCast(ptr noundef %0, ptr noundef nonnull readonly captures(none) %1) unnamed_addr #0 {
  %3 = alloca i32, align 4
  %4 = alloca i32, align 4
  %5 = alloca i32, align 4
  %6 = getelementptr inbounds nuw i8, ptr %1, i64 8
  %7 = load ptr, ptr %6, align 8
  call void @llvm.lifetime.start.p0(i64 4, ptr nonnull %3) #9
  call void @llvm.lifetime.start.p0(i64 4, ptr nonnull %4) #9
  %8 = getelementptr inbounds nuw i8, ptr %1, i64 16
  %9 = load ptr, ptr %8, align 8
  call void @typenameTypeIdAndMod(ptr noundef %0, ptr noundef %9, ptr noundef nonnull %3, ptr noundef nonnull %4) #9
  %10 = load i32, ptr %7, align 4
  %11 = icmp eq i32 %10, 80
  br i1 %11, label %12, label %23

12:                                               ; preds = %2
  call void @llvm.lifetime.start.p0(i64 4, ptr nonnull %5) #9
  %13 = load i32, ptr %4, align 4
  store i32 %13, ptr %5, align 4
  %14 = load i32, ptr %3, align 4
  %15 = call i32 @getBaseTypeAndTypmod(i32 noundef %14, ptr noundef nonnull %5) #9
  %16 = call i32 @get_element_type(i32 noundef %15) #9
  %.not = icmp eq i32 %16, 0
  br i1 %.not, label %20, label %17

17:                                               ; preds = %12
  %18 = load i32, ptr %5, align 4
  %19 = call fastcc ptr @transformArrayExpr(ptr noundef %0, ptr noundef nonnull %7, i32 noundef %15, i32 noundef %16, i32 noundef %18)
  br label %22

20:                                               ; preds = %12
  %21 = call fastcc ptr @transformExprRecurse(ptr noundef %0, ptr noundef nonnull %7)
  br label %22

22:                                               ; preds = %20, %17
  %.030 = phi ptr [ %19, %17 ], [ %21, %20 ]
  call void @llvm.lifetime.end.p0(i64 4, ptr nonnull %5) #9
  br label %25

23:                                               ; preds = %2
  %24 = call fastcc ptr @transformExprRecurse(ptr noundef %0, ptr noundef nonnull %7)
  br label %25

25:                                               ; preds = %23, %22
  %.1 = phi ptr [ %.030, %22 ], [ %24, %23 ]
  %26 = call i32 @exprType(ptr noundef %.1) #9
  %27 = icmp eq i32 %26, 0
  br i1 %27, label %49, label %28

28:                                               ; preds = %25
  %29 = getelementptr inbounds nuw i8, ptr %1, i64 24
  %30 = load i32, ptr %29, align 8
  %31 = icmp slt i32 %30, 0
  br i1 %31, label %32, label %36

32:                                               ; preds = %28
  %33 = load ptr, ptr %8, align 8
  %34 = getelementptr inbounds nuw i8, ptr %33, i64 48
  %35 = load i32, ptr %34, align 8
  br label %36

36:                                               ; preds = %32, %28
  %.031 = phi i32 [ %35, %32 ], [ %30, %28 ]
  %37 = load i32, ptr %3, align 4
  %38 = load i32, ptr %4, align 4
  %39 = call ptr @coerce_to_target_type(ptr noundef %0, ptr noundef %.1, i32 noundef %26, i32 noundef %37, i32 noundef %38, i32 noundef 3, i32 noundef 1, i32 noundef %.031) #9
  %40 = icmp eq ptr %39, null
  br i1 %40, label %41, label %49

41:                                               ; preds = %36
  %42 = call zeroext i1 @errstart_cold(i32 noundef 21, ptr noundef null) #10
  call void @llvm.assume(i1 %42)
  %43 = call i32 @errcode(i32 noundef 101744772) #9
  %44 = call ptr @format_type_be(i32 noundef %26) #9
  %45 = load i32, ptr %3, align 4
  %46 = call ptr @format_type_be(i32 noundef %45) #9
  %47 = call i32 (ptr, ...) @errmsg(ptr noundef nonnull @.str.61, ptr noundef %44, ptr noundef %46) #9
  %48 = call i32 @parser_coercion_errposition(ptr noundef %0, i32 noundef %.031, ptr noundef %.1) #9
  call void @errfinish(ptr noundef nonnull @.str.41, i32 noundef 2765, ptr noundef nonnull @__func__.transformTypeCast) #9
  unreachable

49:                                               ; preds = %36, %25
  %.0 = phi ptr [ %.1, %25 ], [ %39, %36 ]
  call void @llvm.lifetime.end.p0(i64 4, ptr nonnull %4) #9
  call void @llvm.lifetime.end.p0(i64 4, ptr nonnull %3) #9
  ret ptr %.0
}